target datalayout = "e-m:e-p270:32:32-p271:32:32-p272:64:64-i64:64-i128:128-f80:128-n8:16:32:64-S128"
target triple = "x86_64-pc-linux-gnu"

%struct.poly_st = type { [256 x i32] }

; Function Attrs: inlinehint nounwind uwtable
define internal i32 @value_barrier_32(i32 noundef %0) #2 {
  %2 = alloca i32, align 4
  %3 = alloca i32, align 4
  store i32 %0, ptr %2, align 4, !tbaa !8
  call void @llvm.lifetime.start.p0(i64 4, ptr %3) #3
  %4 = load i32, ptr %2, align 4, !tbaa !8
  %5 = call i32 asm "", "=r,0,~{dirflag},~{fpsr},~{flags}"(i32 %4) #4, !srcloc !21
  store i32 %5, ptr %3, align 4, !tbaa !8
  %6 = load i32, ptr %3, align 4, !tbaa !8
  call void @llvm.lifetime.end.p0(i64 4, ptr %3) #3
  ret i32 %6
}

; Function Attrs: inlinehint nounwind uwtable
define internal i32 @constant_time_msb_32(i32 noundef %0) #2 {
  %2 = alloca i32, align 4
  store i32 %0, ptr %2, align 4, !tbaa !8
  %3 = load i32, ptr %2, align 4, !tbaa !8
  %4 = lshr i32 %3, 31
  %5 = sub i32 0, %4
  ret i32 %5
}

; Function Attrs: inlinehint nounwind uwtable
define internal i32 @constant_time_select_32(i32 noundef %0, i32 noundef %1, i32 noundef %2) #2 {
  %4 = alloca i32, align 4
  %5 = alloca i32, align 4
  %6 = alloca i32, align 4
  store i32 %0, ptr %4, align 4, !tbaa !8
  store i32 %1, ptr %5, align 4, !tbaa !8
  store i32 %2, ptr %6, align 4, !tbaa !8
  %7 = load i32, ptr %4, align 4, !tbaa !8
  %8 = call i32 @value_barrier_32(i32 noundef %7)
  %9 = load i32, ptr %5, align 4, !tbaa !8
  %10 = and i32 %8, %9
  %11 = load i32, ptr %4, align 4, !tbaa !8
  %12 = xor i32 %11, -1
  %13 = call i32 @value_barrier_32(i32 noundef %12)
  %14 = load i32, ptr %6, align 4, !tbaa !8
  %15 = and i32 %13, %14
  %16 = or i32 %10, %15
  ret i32 %16
}

; Function Attrs: inlinehint nounwind uwtable
define internal i32 @constant_time_lt_32(i32 noundef %0, i32 noundef %1) #2 {
  %3 = alloca i32, align 4
  %4 = alloca i32, align 4
  store i32 %0, ptr %3, align 4, !tbaa !8
  store i32 %1, ptr %4, align 4, !tbaa !8
  %5 = load i32, ptr %3, align 4, !tbaa !8
  %6 = load i32, ptr %3, align 4, !tbaa !8
  %7 = load i32, ptr %4, align 4, !tbaa !8
  %8 = xor i32 %6, %7
  %9 = load i32, ptr %3, align 4, !tbaa !8
  %10 = load i32, ptr %4, align 4, !tbaa !8
  %11 = sub i32 %9, %10
  %12 = load i32, ptr %4, align 4, !tbaa !8
  %13 = xor i32 %11, %12
  %14 = or i32 %8, %13
  %15 = xor i32 %5, %14
  %16 = call i32 @constant_time_msb_32(i32 noundef %15)
  ret i32 %16
}

; Function Attrs: inlinehint nounwind uwtable
define internal i32 @mod_sub(i32 noundef %0, i32 noundef %1) #2 {
  %3 = alloca i32, align 4
  %4 = alloca i32, align 4
  store i32 %0, ptr %3, align 4, !tbaa !8
  store i32 %1, ptr %4, align 4, !tbaa !8
  %5 = load i32, ptr %3, align 4, !tbaa !8
  %6 = add i32 8380417, %5
  %7 = load i32, ptr %4, align 4, !tbaa !8
  %8 = sub i32 %6, %7
  %9 = call i32 @reduce_once(i32 noundef %8)
  ret i32 %9
}

; Function Attrs: inlinehint nounwind uwtable
define internal i32 @reduce_once(i32 noundef %0) #2 {
  %2 = alloca i32, align 4
  store i32 %0, ptr %2, align 4, !tbaa !8
  %3 = load i32, ptr %2, align 4, !tbaa !8
  %4 = call i32 @constant_time_lt_32(i32 noundef %3, i32 noundef 8380417)
  %5 = load i32, ptr %2, align 4, !tbaa !8
  %6 = load i32, ptr %2, align 4, !tbaa !8
  %7 = sub i32 %6, 8380417
  %8 = call i32 @constant_time_select_32(i32 noundef %4, i32 noundef %5, i32 noundef %7)
  ret i32 %8
}

; Function Attrs: nounwind uwtable
define internal i32 @reduce_montgomery(i64 noundef %0) #0 {
  %2 = alloca i64, align 8
  %3 = alloca i64, align 8
  %4 = alloca i64, align 8
  %5 = alloca i32, align 4
  store i64 %0, ptr %2, align 8, !tbaa !12
  call void @llvm.lifetime.start.p0(i64 8, ptr %3) #3
  %6 = load i64, ptr %2, align 8, !tbaa !12
  %7 = trunc i64 %6 to i32
  %8 = mul i32 %7, -58728449
  %9 = zext i32 %8 to i64
  store i64 %9, ptr %3, align 8, !tbaa !12
  call void @llvm.lifetime.start.p0(i64 8, ptr %4) #3
  %10 = load i64, ptr %2, align 8, !tbaa !12
  %11 = load i64, ptr %3, align 8, !tbaa !12
  %12 = mul i64 %11, 8380417
  %13 = add i64 %10, %12
  store i64 %13, ptr %4, align 8, !tbaa !12
  call void @llvm.lifetime.start.p0(i64 4, ptr %5) #3
  %14 = load i64, ptr %4, align 8, !tbaa !12
  %15 = lshr i64 %14, 32
  %16 = trunc i64 %15 to i32
  store i32 %16, ptr %5, align 4, !tbaa !8
  %17 = load i32, ptr %5, align 4, !tbaa !8
  %18 = call i32 @reduce_once(i32 noundef %17)
  call void @llvm.lifetime.end.p0(i64 4, ptr %5) #3
  call void @llvm.lifetime.end.p0(i64 8, ptr %4) #3
  call void @llvm.lifetime.end.p0(i64 8, ptr %3) #3
  ret i32 %18
}

; Function Attrs: nounwind uwtable
define void @ossl_ml_dsa_poly_ntt(ptr noundef %0) #0 {
  %2 = alloca ptr, align 8
  %3 = alloca i32, align 4
  %4 = alloca i32, align 4
  %5 = alloca i32, align 4
  %6 = alloca i32, align 4
  %7 = alloca i32, align 4
  %8 = alloca i32, align 4
  %9 = alloca i32, align 4
  %10 = alloca i32, align 4
  store ptr %0, ptr %2, align 8, !tbaa !3
  call void @llvm.lifetime.start.p0(i64 4, ptr %3) #3
  call void @llvm.lifetime.start.p0(i64 4, ptr %4) #3
  call void @llvm.lifetime.start.p0(i64 4, ptr %5) #3
  call void @llvm.lifetime.start.p0(i64 4, ptr %6) #3
  call void @llvm.lifetime.start.p0(i64 4, ptr %7) #3
  store i32 256, ptr %7, align 4, !tbaa !8
  store i32 1, ptr %6, align 4, !tbaa !8
  br label %11

11:                                               ; preds = %86, %1
  %12 = load i32, ptr %6, align 4, !tbaa !8
  %13 = icmp slt i32 %12, 256
  br i1 %13, label %14, label %89

14:                                               ; preds = %11
  store i32 0, ptr %5, align 4, !tbaa !8
  %15 = load i32, ptr %7, align 4, !tbaa !8
  %16 = ashr i32 %15, 1
  store i32 %16, ptr %7, align 4, !tbaa !8
  store i32 0, ptr %3, align 4, !tbaa !8
  br label %17

17:                                               ; preds = %82, %14
  %18 = load i32, ptr %3, align 4, !tbaa !8
  %19 = load i32, ptr %6, align 4, !tbaa !8
  %20 = icmp slt i32 %18, %19
  br i1 %20, label %21, label %85

21:                                               ; preds = %17
  call void @llvm.lifetime.start.p0(i64 4, ptr %8) #3
  %22 = load i32, ptr %6, align 4, !tbaa !8
  %23 = load i32, ptr %3, align 4, !tbaa !8
  %24 = add nsw i32 %22, %23
  %25 = sext i32 %24 to i64
  %26 = getelementptr inbounds [256 x i32], ptr @zetas_montgomery, i64 0, i64 %25
  %27 = load i32, ptr %26, align 4, !tbaa !8
  store i32 %27, ptr %8, align 4, !tbaa !8
  %28 = load i32, ptr %5, align 4, !tbaa !8
  store i32 %28, ptr %4, align 4, !tbaa !8
  br label %29

29:                                               ; preds = %74, %21
  %30 = load i32, ptr %4, align 4, !tbaa !8
  %31 = load i32, ptr %5, align 4, !tbaa !8
  %32 = load i32, ptr %7, align 4, !tbaa !8
  %33 = add nsw i32 %31, %32
  %34 = icmp slt i32 %30, %33
  br i1 %34, label %35, label %77

35:                                               ; preds = %29
  call void @llvm.lifetime.start.p0(i64 4, ptr %9) #3
  %36 = load ptr, ptr %2, align 8, !tbaa !3
  %37 = getelementptr inbounds nuw %struct.poly_st, ptr %36, i32 0, i32 0
  %38 = load i32, ptr %4, align 4, !tbaa !8
  %39 = sext i32 %38 to i64
  %40 = getelementptr inbounds [256 x i32], ptr %37, i64 0, i64 %39
  %41 = load i32, ptr %40, align 4, !tbaa !8
  store i32 %41, ptr %9, align 4, !tbaa !8
  call void @llvm.lifetime.start.p0(i64 4, ptr %10) #3
  %42 = load i32, ptr %8, align 4, !tbaa !8
  %43 = zext i32 %42 to i64
  %44 = load ptr, ptr %2, align 8, !tbaa !3
  %45 = getelementptr inbounds nuw %struct.poly_st, ptr %44, i32 0, i32 0
  %46 = load i32, ptr %4, align 4, !tbaa !8
  %47 = load i32, ptr %7, align 4, !tbaa !8
  %48 = add nsw i32 %46, %47
  %49 = sext i32 %48 to i64
  %50 = getelementptr inbounds [256 x i32], ptr %45, i64 0, i64 %49
  %51 = load i32, ptr %50, align 4, !tbaa !8
  %52 = zext i32 %51 to i64
  %53 = mul i64 %43, %52
  %54 = call i32 @reduce_montgomery(i64 noundef %53)
  store i32 %54, ptr %10, align 4, !tbaa !8
  %55 = load i32, ptr %9, align 4, !tbaa !8
  %56 = load i32, ptr %10, align 4, !tbaa !8
  %57 = add i32 %55, %56
  %58 = call i32 @reduce_once(i32 noundef %57)
  %59 = load ptr, ptr %2, align 8, !tbaa !3
  %60 = getelementptr inbounds nuw %struct.poly_st, ptr %59, i32 0, i32 0
  %61 = load i32, ptr %4, align 4, !tbaa !8
  %62 = sext i32 %61 to i64
  %63 = getelementptr inbounds [256 x i32], ptr %60, i64 0, i64 %62
  store i32 %58, ptr %63, align 4, !tbaa !8
  %64 = load i32, ptr %9, align 4, !tbaa !8
  %65 = load i32, ptr %10, align 4, !tbaa !8
  %66 = call i32 @mod_sub(i32 noundef %64, i32 noundef %65)
  %67 = load ptr, ptr %2, align 8, !tbaa !3
  %68 = getelementptr inbounds nuw %struct.poly_st, ptr %67, i32 0, i32 0
  %69 = load i32, ptr %4, align 4, !tbaa !8
  %70 = load i32, ptr %7, align 4, !tbaa !8
  %71 = add nsw i32 %69, %70
  %72 = sext i32 %71 to i64
  %73 = getelementptr inbounds [256 x i32], ptr %68, i64 0, i64 %72
  store i32 %66, ptr %73, align 4, !tbaa !8
  call void @llvm.lifetime.end.p0(i64 4, ptr %10) #3
  call void @llvm.lifetime.end.p0(i64 4, ptr %9) #3
  br label %74

74:                                               ; preds = %35
  %75 = load i32, ptr %4, align 4, !tbaa !8
  %76 = add nsw i32 %75, 1
  store i32 %76, ptr %4, align 4, !tbaa !8
  br label %29, !llvm.loop !14

77:                                               ; preds = %29
  %78 = load i32, ptr %7, align 4, !tbaa !8
  %79 = mul nsw i32 2, %78
  %80 = load i32, ptr %5, align 4, !tbaa !8
  %81 = add nsw i32 %80, %79
  store i32 %81, ptr %5, align 4, !tbaa !8
  call void @llvm.lifetime.end.p0(i64 4, ptr %8) #3
  br label %82

82:                                               ; preds = %77
  %83 = load i32, ptr %3, align 4, !tbaa !8
  %84 = add nsw i32 %83, 1
  store i32 %84, ptr %3, align 4, !tbaa !8
  br label %17, !llvm.loop !15

85:                                               ; preds = %17
  br label %86

86:                                               ; preds = %85
  %87 = load i32, ptr %6, align 4, !tbaa !8
  %88 = shl i32 %87, 1
  store i32 %88, ptr %6, align 4, !tbaa !8
  br label %11, !llvm.loop !16

89:                                               ; preds = %11
  call void @llvm.lifetime.end.p0(i64 4, ptr %7) #3
  call void @llvm.lifetime.end.p0(i64 4, ptr %6) #3
  call void @llvm.lifetime.end.p0(i64 4, ptr %5) #3
  call void @llvm.lifetime.end.p0(i64 4, ptr %4) #3
  call void @llvm.lifetime.end.p0(i64 4, ptr %3) #3
  ret void
}