; Function Attrs: nounwind memory(argmem: readwrite) uwtable
define void @ossl_ml_dsa_poly_ntt(ptr noundef captures(none) %0) local_unnamed_addr #0 {
  br label %2

2:                                                ; preds = %1, %._crit_edge39
  %.03141 = phi i32 [ 256, %1 ], [ %3, %._crit_edge39 ]
  %.03240 = phi i32 [ 1, %1 ], [ %58, %._crit_edge39 ]
  %3 = lshr i32 %.03141, 1
  %4 = icmp sgt i32 %.03240, 0
  br i1 %4, label %.lr.ph38, label %._crit_edge39

.lr.ph38:                                         ; preds = %2
  %5 = and i32 %.03141, 510
  %6 = zext nneg i32 %5 to i64
  %7 = zext nneg i32 %3 to i64
  %8 = zext nneg i32 %.03240 to i64
  br label %.lr.ph

.lr.ph:                                           ; preds = %._crit_edge, %.lr.ph38
  %indvars.iv44 = phi i64 [ 0, %.lr.ph38 ], [ %indvars.iv.next45, %._crit_edge ]
  %indvars.iv = phi i64 [ 0, %.lr.ph38 ], [ %indvars.iv.next, %._crit_edge ]
  %9 = add nuw nsw i64 %indvars.iv, %7
  %10 = add nuw nsw i64 %indvars.iv44, %8
  %11 = getelementptr inbounds nuw [256 x i32], ptr @zetas_montgomery, i64 0, i64 %10
  %12 = load i32, ptr %11, align 4, !tbaa !3
  %13 = zext i32 %12 to i64
  %invariant.op = mul nuw i64 %13, 4236238847
  br label %14

14:                                               ; preds = %.lr.ph, %14
  %indvars.iv42 = phi i64 [ %indvars.iv, %.lr.ph ], [ %indvars.iv.next43, %14 ]
  %15 = getelementptr inbounds nuw [256 x i32], ptr %0, i64 0, i64 %indvars.iv42
  %16 = load i32, ptr %15, align 4, !tbaa !3
  %17 = add nuw nsw i64 %indvars.iv42, %7
  %18 = getelementptr inbounds nuw [256 x i32], ptr %0, i64 0, i64 %17
  %19 = load i32, ptr %18, align 4, !tbaa !3
  %20 = zext i32 %19 to i64
  %21 = mul nuw i64 %20, %13
  %.reass = mul i64 %invariant.op, %20
  %22 = and i64 %.reass, 4294967295
  %23 = mul nuw nsw i64 %22, 8380417
  %24 = add i64 %23, %21
  %25 = lshr i64 %24, 32
  %26 = trunc nuw i64 %25 to i32
  %27 = add i32 %26, -8380417
  %28 = xor i32 %26, -1
  %29 = and i32 %27, %28
  %.neg.i.i.i.i = ashr i32 %29, 31
  %30 = tail call i32 asm "", "=r,0,~{dirflag},~{fpsr},~{flags}"(i32 range(i32 -1, 1) %.neg.i.i.i.i) #1, !srcloc !7
  %31 = and i32 %30, %26
  %32 = xor i32 %.neg.i.i.i.i, -1
  %33 = tail call i32 asm "", "=r,0,~{dirflag},~{fpsr},~{flags}"(i32 range(i32 -1, 1) %32) #1, !srcloc !7
  %34 = and i32 %27, %33
  %35 = or i32 %34, %31
  %36 = add i32 %35, %16
  %37 = add i32 %36, -8380417
  %38 = xor i32 %36, -1
  %39 = and i32 %37, %38
  %.neg.i.i.i = ashr i32 %39, 31
  %40 = tail call i32 asm "", "=r,0,~{dirflag},~{fpsr},~{flags}"(i32 range(i32 -1, 1) %.neg.i.i.i) #1, !srcloc !7
  %41 = and i32 %36, %40
  %42 = xor i32 %.neg.i.i.i, -1
  %43 = tail call i32 asm "", "=r,0,~{dirflag},~{fpsr},~{flags}"(i32 range(i32 -1, 1) %42) #1, !srcloc !7
  %44 = and i32 %37, %43
  %45 = or i32 %44, %41
  store i32 %45, ptr %15, align 4, !tbaa !3
  %46 = add i32 %16, 8380417
  %47 = sub i32 %46, %35
  %48 = add i32 %47, -8380417
  %49 = xor i32 %47, -1
  %50 = and i32 %48, %49
  %.neg.i.i.i.i33 = ashr i32 %50, 31
  %51 = tail call i32 asm "", "=r,0,~{dirflag},~{fpsr},~{flags}"(i32 range(i32 -1, 1) %.neg.i.i.i.i33) #1, !srcloc !7
  %52 = and i32 %47, %51
  %53 = xor i32 %.neg.i.i.i.i33, -1
  %54 = tail call i32 asm "", "=r,0,~{dirflag},~{fpsr},~{flags}"(i32 range(i32 -1, 1) %53) #1, !srcloc !7
  %55 = and i32 %48, %54
  %56 = or i32 %55, %52
  store i32 %56, ptr %18, align 4, !tbaa !3
  %indvars.iv.next43 = add nuw nsw i64 %indvars.iv42, 1
  %57 = icmp samesign ult i64 %indvars.iv.next43, %9
  br i1 %57, label %14, label %._crit_edge, !llvm.loop !10

._crit_edge:                                      ; preds = %14
  %indvars.iv.next = add nuw nsw i64 %indvars.iv, %6
  %indvars.iv.next45 = add nuw nsw i64 %indvars.iv44, 1
  %exitcond.not = icmp eq i64 %indvars.iv.next45, %8
  br i1 %exitcond.not, label %._crit_edge39, label %.lr.ph, !llvm.loop !11

._crit_edge39:                                    ; preds = %._crit_edge, %2
  %58 = shl i32 %.03240, 1
  %59 = icmp slt i32 %58, 256
  br i1 %59, label %2, label %60, !llvm.loop !12

60:                                               ; preds = %._crit_edge39
  ret void
}